; Function Attrs: mustprogress uwtable
define hidden noundef double @_ZN10sls_engine23incremental_score_pruneEP9func_declRK3mpz(ptr noundef nonnull align 8 dereferenceable(1512) %this, ptr noundef %fd, ptr noundef nonnull align 8 dereferenceable(16) %new_value) local_unnamed_addr #3 align 2 {
entry:
  %m_incr_evals = getelementptr inbounds i8, ptr %this, i64 44
  %0 = load i32, ptr %m_incr_evals, align 4
  %inc = add i32 %0, 1
  store i32 %inc, ptr %m_incr_evals, align 4
  %m_evaluator = getelementptr inbounds i8, ptr %this, i64 1184
  %call = tail call noundef i32 @_ZN13sls_evaluator12update_pruneEP9func_declRK3mpz(ptr noundef nonnull align 8 dereferenceable(264) %m_evaluator, ptr noundef %fd, ptr noundef nonnull align 8 dereferenceable(16) %new_value)
  %tobool.not = icmp eq i32 %call, 0
  %m_top_sum.i = getelementptr inbounds i8, ptr %this, i64 1152
  %1 = load double, ptr %m_top_sum.i, align 8
  %retval.0 = select i1 %tobool.not, double 0xFFEFFFFFFFFFFFFF, double %1
  ret double %retval.0
}